; Function Attrs: mustprogress uwtable
define hidden void @_ZN12mpff_manager5resetER4mpff(ptr noundef nonnull align 8 dereferenceable(89) %0, ptr noundef nonnull align 4 captures(none) dereferenceable(8) %1) local_unnamed_addr #3 align 2 {
  %3 = load i32, ptr %1, align 4
  %.not.i = icmp ult i32 %3, 2
  br i1 %.not.i, label %_ZN12mpff_manager3delER4mpff.exit, label %4

4:                                                ; preds = %2
  %5 = lshr i32 %3, 1
  %6 = tail call noundef zeroext i1 @_ZN6memory16is_out_of_memoryEv()
  br i1 %6, label %_ZN6id_gen7recycleEj.exit.i, label %7

7:                                                ; preds = %4
  %8 = getelementptr inbounds nuw i8, ptr %0, i64 32
  %9 = load ptr, ptr %8, align 8, !tbaa !3
  %10 = icmp eq ptr %9, null
  br i1 %10, label %17, label %11

11:                                               ; preds = %7
  %12 = getelementptr inbounds i8, ptr %9, i64 -4
  %13 = load i32, ptr %12, align 4, !tbaa !21
  %14 = getelementptr inbounds i8, ptr %9, i64 -8
  %15 = load i32, ptr %14, align 4, !tbaa !21
  %16 = icmp eq i32 %13, %15
  br i1 %16, label %17, label %_ZN6vectorIjLb0EjE9push_backERKj.exit.i.i

17:                                               ; preds = %11, %7
  tail call void @_ZN6vectorIjLb0EjE13expand_vectorEv(ptr noundef nonnull align 8 dereferenceable(8) %8)
  %.pre.i.i.i = load ptr, ptr %8, align 8, !tbaa !3
  %.phi.trans.insert.i.i.i = getelementptr inbounds i8, ptr %.pre.i.i.i, i64 -4
  %.pre2.i.i.i = load i32, ptr %.phi.trans.insert.i.i.i, align 4, !tbaa !21
  br label %_ZN6vectorIjLb0EjE9push_backERKj.exit.i.i

_ZN6vectorIjLb0EjE9push_backERKj.exit.i.i:        ; preds = %17, %11
  %18 = phi i32 [ %.pre2.i.i.i, %17 ], [ %13, %11 ]
  %19 = phi ptr [ %.pre.i.i.i, %17 ], [ %9, %11 ]
  %20 = getelementptr inbounds i8, ptr %19, i64 -4
  %21 = zext i32 %18 to i64
  %22 = getelementptr inbounds nuw i32, ptr %19, i64 %21
  store i32 %5, ptr %22, align 4, !tbaa !21
  %23 = add i32 %18, 1
  store i32 %23, ptr %20, align 4, !tbaa !21
  br label %_ZN6id_gen7recycleEj.exit.i

_ZN6id_gen7recycleEj.exit.i:                      ; preds = %_ZN6vectorIjLb0EjE9push_backERKj.exit.i.i, %4
  %24 = getelementptr inbounds nuw i8, ptr %0, i64 8
  %25 = load ptr, ptr %24, align 8, !tbaa !3
  %26 = load i32, ptr %1, align 4
  %27 = lshr i32 %26, 1
  %28 = load i32, ptr %0, align 8, !tbaa !13
  %29 = mul i32 %27, %28
  %30 = zext i32 %29 to i64
  %31 = getelementptr inbounds nuw i32, ptr %25, i64 %30
  %.not10.i = icmp eq i32 %28, 0
  br i1 %.not10.i, label %_ZN12mpff_manager3delER4mpff.exit, label %.lr.ph.i

.lr.ph.i:                                         ; preds = %_ZN6id_gen7recycleEj.exit.i, %.lr.ph.i
  %indvars.iv.i = phi i64 [ %indvars.iv.next.i, %.lr.ph.i ], [ 0, %_ZN6id_gen7recycleEj.exit.i ]
  %32 = getelementptr inbounds nuw i32, ptr %31, i64 %indvars.iv.i
  store i32 0, ptr %32, align 4, !tbaa !21
  %indvars.iv.next.i = add nuw nsw i64 %indvars.iv.i, 1
  %33 = load i32, ptr %0, align 8, !tbaa !13
  %34 = zext i32 %33 to i64
  %35 = icmp samesign ult i64 %indvars.iv.next.i, %34
  br i1 %35, label %.lr.ph.i, label %_ZN12mpff_manager3delER4mpff.exit, !llvm.loop !37

_ZN12mpff_manager3delER4mpff.exit:                ; preds = %.lr.ph.i, %2, %_ZN6id_gen7recycleEj.exit.i
  store i32 0, ptr %1, align 4
  %36 = getelementptr inbounds nuw i8, ptr %1, i64 4
  store i32 0, ptr %36, align 4, !tbaa !35
  ret void
}